; Function Attrs: mustprogress uwtable
define void @_ZN32pxrInternal_v0_24__pxrReserved__18TfStringCapitalizeERKNSt7__cxx1112basic_stringIcSt11char_traitsIcESaIcEEE(ptr dead_on_unwind noalias writable sret(%"class.std::__cxx11::basic_string") align 8 %0, ptr noundef nonnull align 8 dereferenceable(32) %1) local_unnamed_addr #0 personality ptr @__gxx_personality_v0 {
  %3 = tail call noundef zeroext i1 @_ZNKSt7__cxx1112basic_stringIcSt11char_traitsIcESaIcEE5emptyEv(ptr noundef nonnull align 8 dereferenceable(32) %1) #22
  tail call void @_ZNSt7__cxx1112basic_stringIcSt11char_traitsIcESaIcEEC1ERKS4_(ptr noundef nonnull align 8 dereferenceable(32) %0, ptr noundef nonnull align 8 dereferenceable(32) %1)
  br i1 %3, label %15, label %4

4:                                                ; preds = %2
  %5 = invoke noundef nonnull align 1 dereferenceable(1) ptr @_ZNSt7__cxx1112basic_stringIcSt11char_traitsIcESaIcEEixEm(ptr noundef nonnull align 8 dereferenceable(32) %0, i64 noundef 0)
          to label %6 unwind label %13

6:                                                ; preds = %4
  %7 = load i8, ptr %5, align 1
  %8 = sext i8 %7 to i32
  %9 = tail call i32 @toupper(i32 noundef %8) #23
  %10 = invoke noundef nonnull align 1 dereferenceable(1) ptr @_ZNSt7__cxx1112basic_stringIcSt11char_traitsIcESaIcEEixEm(ptr noundef nonnull align 8 dereferenceable(32) %0, i64 noundef 0)
          to label %11 unwind label %13

11:                                               ; preds = %6
  %12 = trunc i32 %9 to i8
  store i8 %12, ptr %10, align 1
  br label %15

13:                                               ; preds = %6, %4
  %14 = landingpad { ptr, i32 }
          cleanup
  tail call void @_ZNSt7__cxx1112basic_stringIcSt11char_traitsIcESaIcEED1Ev(ptr noundef nonnull align 8 dereferenceable(32) %0) #22
  resume { ptr, i32 } %14

15:                                               ; preds = %2, %11
  ret void
}